
kernel.elf:     file format elf64-littleaarch64


Disassembly of section .startup:

0000000040080000 <_start>:
    40080000:	58007c5e 	ldr	x30, 40080f88 <curr_el_spx_serror+0x408>
    40080004:	910003df 	mov	sp, x30
    40080008:	58007c54 	ldr	x20, 40080f90 <curr_el_spx_serror+0x410>
    4008000c:	d518c014 	msr	vbar_el1, x20
    40080010:	940003ea 	bl	40080fb8 <kmain>
    40080014:	d50343ff 	msr	daifclr, #0x3
    40080018:	d5033fdf 	isb
    4008001c:	d53b422b 	mrs	x11, daif
    40080020:	94000407 	bl	4008103c <bmain>

0000000040080024 <foo>:
    40080024:	58007baa 	ldr	x10, 40080f98 <curr_el_spx_serror+0x418>
    40080028:	58007bca 	ldr	x10, 40080fa0 <curr_el_spx_serror+0x420>
    4008002c:	17fffffe 	b	40080024 <foo>

0000000040080030 <test>:
    40080030:	d53be037 	mrs	x23, cntpct_el0
    40080034:	58007bb9 	ldr	x25, 40080fa8 <curr_el_spx_serror+0x428>
    40080038:	d51be319 	msr	cntv_tval_el0, x25
    4008003c:	d53be358 	mrs	x24, cntv_cval_el0
    40080040:	d503201f 	nop
    40080044:	d503201f 	nop
    40080048:	d503201f 	nop
    4008004c:	d503201f 	nop
    40080050:	d503201f 	nop
    40080054:	d503201f 	nop
    40080058:	d503201f 	nop
    4008005c:	d503201f 	nop
    40080060:	d503201f 	nop
    40080064:	d503201f 	nop
    40080068:	d503201f 	nop
    4008006c:	d503201f 	nop
    40080070:	d503201f 	nop
    40080074:	d503201f 	nop
    40080078:	d503201f 	nop
    4008007c:	d503201f 	nop
    40080080:	d503201f 	nop
    40080084:	d503201f 	nop
    40080088:	d503201f 	nop
    4008008c:	d503201f 	nop
    40080090:	d503201f 	nop
    40080094:	d503201f 	nop
    40080098:	d503201f 	nop
    4008009c:	d503201f 	nop
    400800a0:	d503201f 	nop
    400800a4:	d503201f 	nop
    400800a8:	d503201f 	nop
    400800ac:	d503201f 	nop
    400800b0:	d503201f 	nop
    400800b4:	d503201f 	nop
    400800b8:	d503201f 	nop
    400800bc:	d503201f 	nop
    400800c0:	d503201f 	nop
    400800c4:	d503201f 	nop
    400800c8:	d503201f 	nop
    400800cc:	d503201f 	nop
    400800d0:	d503201f 	nop
    400800d4:	d503201f 	nop
    400800d8:	d503201f 	nop
    400800dc:	d503201f 	nop
    400800e0:	d503201f 	nop
    400800e4:	d503201f 	nop
    400800e8:	d503201f 	nop
    400800ec:	d503201f 	nop
    400800f0:	d503201f 	nop
    400800f4:	d503201f 	nop
    400800f8:	d503201f 	nop
    400800fc:	d503201f 	nop
    40080100:	d503201f 	nop
    40080104:	d503201f 	nop
    40080108:	d503201f 	nop
    4008010c:	d503201f 	nop
    40080110:	d503201f 	nop
    40080114:	d503201f 	nop
    40080118:	d503201f 	nop
    4008011c:	d503201f 	nop
    40080120:	d503201f 	nop
    40080124:	d503201f 	nop
    40080128:	d503201f 	nop
    4008012c:	d503201f 	nop
    40080130:	d503201f 	nop
    40080134:	d503201f 	nop
    40080138:	d503201f 	nop
    4008013c:	d503201f 	nop
    40080140:	d503201f 	nop
    40080144:	d503201f 	nop
    40080148:	d503201f 	nop
    4008014c:	d503201f 	nop
    40080150:	d503201f 	nop
    40080154:	d503201f 	nop
    40080158:	d503201f 	nop
    4008015c:	d503201f 	nop
    40080160:	d503201f 	nop
    40080164:	d503201f 	nop
    40080168:	d503201f 	nop
    4008016c:	d503201f 	nop
    40080170:	d503201f 	nop
    40080174:	d503201f 	nop
    40080178:	d503201f 	nop
    4008017c:	d503201f 	nop
    40080180:	d503201f 	nop
    40080184:	d503201f 	nop
    40080188:	d503201f 	nop
    4008018c:	d503201f 	nop
    40080190:	d503201f 	nop
    40080194:	d503201f 	nop
    40080198:	d503201f 	nop
    4008019c:	d503201f 	nop
    400801a0:	d503201f 	nop
    400801a4:	d503201f 	nop
    400801a8:	d503201f 	nop
    400801ac:	d503201f 	nop
    400801b0:	d503201f 	nop
    400801b4:	d503201f 	nop
    400801b8:	d503201f 	nop
    400801bc:	d503201f 	nop
    400801c0:	d503201f 	nop
    400801c4:	d503201f 	nop
    400801c8:	d503201f 	nop
    400801cc:	d503201f 	nop
    400801d0:	d503201f 	nop
    400801d4:	d503201f 	nop
    400801d8:	d503201f 	nop
    400801dc:	d503201f 	nop
    400801e0:	d503201f 	nop
    400801e4:	d503201f 	nop
    400801e8:	d503201f 	nop
    400801ec:	d503201f 	nop
    400801f0:	d503201f 	nop
    400801f4:	d503201f 	nop
    400801f8:	d503201f 	nop
    400801fc:	d503201f 	nop
    40080200:	d503201f 	nop
    40080204:	d503201f 	nop
    40080208:	d503201f 	nop
    4008020c:	d503201f 	nop
    40080210:	d503201f 	nop
    40080214:	d503201f 	nop
    40080218:	d503201f 	nop
    4008021c:	d503201f 	nop
    40080220:	d503201f 	nop
    40080224:	d503201f 	nop
    40080228:	d503201f 	nop
    4008022c:	d503201f 	nop
    40080230:	d503201f 	nop
    40080234:	d503201f 	nop
    40080238:	d503201f 	nop
    4008023c:	d503201f 	nop
    40080240:	d503201f 	nop
    40080244:	d503201f 	nop
    40080248:	d503201f 	nop
    4008024c:	d503201f 	nop
    40080250:	d503201f 	nop
    40080254:	d503201f 	nop
    40080258:	d503201f 	nop
    4008025c:	d503201f 	nop
    40080260:	d503201f 	nop
    40080264:	d503201f 	nop
    40080268:	d503201f 	nop
    4008026c:	d503201f 	nop
    40080270:	d503201f 	nop
    40080274:	d503201f 	nop
    40080278:	d503201f 	nop
    4008027c:	d503201f 	nop
    40080280:	d503201f 	nop
    40080284:	d503201f 	nop
    40080288:	d503201f 	nop
    4008028c:	d503201f 	nop
    40080290:	d503201f 	nop
    40080294:	d503201f 	nop
    40080298:	d503201f 	nop
    4008029c:	d503201f 	nop
    400802a0:	d503201f 	nop
    400802a4:	d503201f 	nop
    400802a8:	d503201f 	nop
    400802ac:	d503201f 	nop
    400802b0:	d503201f 	nop
    400802b4:	d503201f 	nop
    400802b8:	d503201f 	nop
    400802bc:	d503201f 	nop
    400802c0:	d503201f 	nop
    400802c4:	d503201f 	nop
    400802c8:	d503201f 	nop
    400802cc:	d503201f 	nop
    400802d0:	d503201f 	nop
    400802d4:	d503201f 	nop
    400802d8:	d503201f 	nop
    400802dc:	d503201f 	nop
    400802e0:	d503201f 	nop
    400802e4:	d503201f 	nop
    400802e8:	d503201f 	nop
    400802ec:	d503201f 	nop
    400802f0:	d503201f 	nop
    400802f4:	d503201f 	nop
    400802f8:	d503201f 	nop
    400802fc:	d503201f 	nop
    40080300:	d503201f 	nop
    40080304:	d503201f 	nop
    40080308:	d503201f 	nop
    4008030c:	d503201f 	nop
    40080310:	d503201f 	nop
    40080314:	d503201f 	nop
    40080318:	d503201f 	nop
    4008031c:	d503201f 	nop
    40080320:	d503201f 	nop
    40080324:	d503201f 	nop
    40080328:	d503201f 	nop
    4008032c:	d503201f 	nop
    40080330:	d503201f 	nop
    40080334:	d503201f 	nop
    40080338:	d503201f 	nop
    4008033c:	d503201f 	nop
    40080340:	d503201f 	nop
    40080344:	d503201f 	nop
    40080348:	d503201f 	nop
    4008034c:	d503201f 	nop
    40080350:	d503201f 	nop
    40080354:	d503201f 	nop
    40080358:	d503201f 	nop
    4008035c:	d503201f 	nop
    40080360:	d503201f 	nop
    40080364:	d503201f 	nop
    40080368:	d503201f 	nop
    4008036c:	d503201f 	nop
    40080370:	d503201f 	nop
    40080374:	d503201f 	nop
    40080378:	d503201f 	nop
    4008037c:	d503201f 	nop
    40080380:	d503201f 	nop
    40080384:	d503201f 	nop
    40080388:	d503201f 	nop
    4008038c:	d503201f 	nop
    40080390:	d503201f 	nop
    40080394:	d503201f 	nop
    40080398:	d503201f 	nop
    4008039c:	d503201f 	nop
    400803a0:	d503201f 	nop
    400803a4:	d503201f 	nop
    400803a8:	d503201f 	nop
    400803ac:	d503201f 	nop
    400803b0:	d503201f 	nop
    400803b4:	d503201f 	nop
    400803b8:	d503201f 	nop
    400803bc:	d503201f 	nop
    400803c0:	d503201f 	nop
    400803c4:	d503201f 	nop
    400803c8:	d503201f 	nop
    400803cc:	d503201f 	nop
    400803d0:	d503201f 	nop
    400803d4:	d503201f 	nop
    400803d8:	d503201f 	nop
    400803dc:	d503201f 	nop
    400803e0:	d503201f 	nop
    400803e4:	d503201f 	nop
    400803e8:	d503201f 	nop
    400803ec:	d503201f 	nop
    400803f0:	d503201f 	nop
    400803f4:	d503201f 	nop
    400803f8:	d503201f 	nop
    400803fc:	d503201f 	nop
    40080400:	d503201f 	nop
    40080404:	d503201f 	nop
    40080408:	d503201f 	nop
    4008040c:	d503201f 	nop
    40080410:	d503201f 	nop
    40080414:	d503201f 	nop
    40080418:	d503201f 	nop
    4008041c:	d503201f 	nop
    40080420:	d503201f 	nop
    40080424:	d503201f 	nop
    40080428:	d503201f 	nop
    4008042c:	d503201f 	nop
    40080430:	d503201f 	nop
    40080434:	d503201f 	nop
    40080438:	d503201f 	nop
    4008043c:	d503201f 	nop
    40080440:	d503201f 	nop
    40080444:	d503201f 	nop
    40080448:	d503201f 	nop
    4008044c:	d503201f 	nop
    40080450:	d503201f 	nop
    40080454:	d503201f 	nop
    40080458:	d503201f 	nop
    4008045c:	d503201f 	nop
    40080460:	d503201f 	nop
    40080464:	d503201f 	nop
    40080468:	d503201f 	nop
    4008046c:	d503201f 	nop
    40080470:	d503201f 	nop
    40080474:	d503201f 	nop
    40080478:	d503201f 	nop
    4008047c:	d503201f 	nop
    40080480:	d503201f 	nop
    40080484:	d503201f 	nop
    40080488:	d503201f 	nop
    4008048c:	d503201f 	nop
    40080490:	d503201f 	nop
    40080494:	d503201f 	nop
    40080498:	d503201f 	nop
    4008049c:	d503201f 	nop
    400804a0:	d503201f 	nop
    400804a4:	d503201f 	nop
    400804a8:	d503201f 	nop
    400804ac:	d503201f 	nop
    400804b0:	d503201f 	nop
    400804b4:	d503201f 	nop
    400804b8:	d503201f 	nop
    400804bc:	d503201f 	nop
    400804c0:	d503201f 	nop
    400804c4:	d503201f 	nop
    400804c8:	d503201f 	nop
    400804cc:	d503201f 	nop
    400804d0:	d503201f 	nop
    400804d4:	d503201f 	nop
    400804d8:	d503201f 	nop
    400804dc:	d503201f 	nop
    400804e0:	d503201f 	nop
    400804e4:	d503201f 	nop
    400804e8:	d503201f 	nop
    400804ec:	d503201f 	nop
    400804f0:	d503201f 	nop
    400804f4:	d503201f 	nop
    400804f8:	d503201f 	nop
    400804fc:	d503201f 	nop
    40080500:	d503201f 	nop
    40080504:	d503201f 	nop
    40080508:	d503201f 	nop
    4008050c:	d503201f 	nop
    40080510:	d503201f 	nop
    40080514:	d503201f 	nop
    40080518:	d503201f 	nop
    4008051c:	d503201f 	nop
    40080520:	d503201f 	nop
    40080524:	d503201f 	nop
    40080528:	d503201f 	nop
    4008052c:	d503201f 	nop
    40080530:	d503201f 	nop
    40080534:	d503201f 	nop
    40080538:	d503201f 	nop
    4008053c:	d503201f 	nop
    40080540:	d503201f 	nop
    40080544:	d503201f 	nop
    40080548:	d503201f 	nop
    4008054c:	d503201f 	nop
    40080550:	d503201f 	nop
    40080554:	d503201f 	nop
    40080558:	d503201f 	nop
    4008055c:	d503201f 	nop
    40080560:	d503201f 	nop
    40080564:	d503201f 	nop
    40080568:	d503201f 	nop
    4008056c:	d503201f 	nop
    40080570:	d503201f 	nop
    40080574:	d503201f 	nop
    40080578:	d503201f 	nop
    4008057c:	d503201f 	nop
    40080580:	d503201f 	nop
    40080584:	d503201f 	nop
    40080588:	d503201f 	nop
    4008058c:	d503201f 	nop
    40080590:	d503201f 	nop
    40080594:	d503201f 	nop
    40080598:	d503201f 	nop
    4008059c:	d503201f 	nop
    400805a0:	d503201f 	nop
    400805a4:	d503201f 	nop
    400805a8:	d503201f 	nop
    400805ac:	d503201f 	nop
    400805b0:	d503201f 	nop
    400805b4:	d503201f 	nop
    400805b8:	d503201f 	nop
    400805bc:	d503201f 	nop
    400805c0:	d503201f 	nop
    400805c4:	d503201f 	nop
    400805c8:	d503201f 	nop
    400805cc:	d503201f 	nop
    400805d0:	d503201f 	nop
    400805d4:	d503201f 	nop
    400805d8:	d503201f 	nop
    400805dc:	d503201f 	nop
    400805e0:	d503201f 	nop
    400805e4:	d503201f 	nop
    400805e8:	d503201f 	nop
    400805ec:	d503201f 	nop
    400805f0:	d503201f 	nop
    400805f4:	d503201f 	nop
    400805f8:	d503201f 	nop
    400805fc:	d503201f 	nop
    40080600:	d503201f 	nop
    40080604:	d503201f 	nop
    40080608:	d503201f 	nop
    4008060c:	d503201f 	nop
    40080610:	d503201f 	nop
    40080614:	d503201f 	nop
    40080618:	d503201f 	nop
    4008061c:	d503201f 	nop
    40080620:	d503201f 	nop
    40080624:	d503201f 	nop
    40080628:	d503201f 	nop
    4008062c:	d503201f 	nop
    40080630:	d503201f 	nop
    40080634:	d503201f 	nop
    40080638:	d503201f 	nop
    4008063c:	d503201f 	nop
    40080640:	d503201f 	nop
    40080644:	d503201f 	nop
    40080648:	d503201f 	nop
    4008064c:	d503201f 	nop
    40080650:	d503201f 	nop
    40080654:	d503201f 	nop
    40080658:	d503201f 	nop
    4008065c:	d503201f 	nop
    40080660:	d503201f 	nop
    40080664:	d503201f 	nop
    40080668:	d503201f 	nop
    4008066c:	d503201f 	nop
    40080670:	d503201f 	nop
    40080674:	d503201f 	nop
    40080678:	d503201f 	nop
    4008067c:	d503201f 	nop
    40080680:	d503201f 	nop
    40080684:	d503201f 	nop
    40080688:	d503201f 	nop
    4008068c:	d503201f 	nop
    40080690:	d503201f 	nop
    40080694:	d503201f 	nop
    40080698:	d503201f 	nop
    4008069c:	d503201f 	nop
    400806a0:	d503201f 	nop
    400806a4:	d503201f 	nop
    400806a8:	d503201f 	nop
    400806ac:	d503201f 	nop
    400806b0:	d503201f 	nop
    400806b4:	d503201f 	nop
    400806b8:	d503201f 	nop
    400806bc:	d503201f 	nop
    400806c0:	d503201f 	nop
    400806c4:	d503201f 	nop
    400806c8:	d503201f 	nop
    400806cc:	d503201f 	nop
    400806d0:	d503201f 	nop
    400806d4:	d503201f 	nop
    400806d8:	d503201f 	nop
    400806dc:	d503201f 	nop
    400806e0:	d503201f 	nop
    400806e4:	d503201f 	nop
    400806e8:	d503201f 	nop
    400806ec:	d503201f 	nop
    400806f0:	d503201f 	nop
    400806f4:	d503201f 	nop
    400806f8:	d503201f 	nop
    400806fc:	d503201f 	nop
    40080700:	d503201f 	nop
    40080704:	d503201f 	nop
    40080708:	d503201f 	nop
    4008070c:	d503201f 	nop
    40080710:	d503201f 	nop
    40080714:	d503201f 	nop
    40080718:	d503201f 	nop
    4008071c:	d503201f 	nop
    40080720:	d503201f 	nop
    40080724:	d503201f 	nop
    40080728:	d503201f 	nop
    4008072c:	d503201f 	nop
    40080730:	d503201f 	nop
    40080734:	d503201f 	nop
    40080738:	d503201f 	nop
    4008073c:	d503201f 	nop
    40080740:	d503201f 	nop
    40080744:	d503201f 	nop
    40080748:	d503201f 	nop
    4008074c:	d503201f 	nop
    40080750:	d503201f 	nop
    40080754:	d503201f 	nop
    40080758:	d503201f 	nop
    4008075c:	d503201f 	nop
    40080760:	d503201f 	nop
    40080764:	d503201f 	nop
    40080768:	d503201f 	nop
    4008076c:	d503201f 	nop
    40080770:	d503201f 	nop
    40080774:	d503201f 	nop
    40080778:	d503201f 	nop
    4008077c:	d503201f 	nop
    40080780:	d503201f 	nop
    40080784:	d503201f 	nop
    40080788:	d503201f 	nop
    4008078c:	d503201f 	nop
    40080790:	d503201f 	nop
    40080794:	d503201f 	nop
    40080798:	d503201f 	nop
    4008079c:	d503201f 	nop
    400807a0:	d503201f 	nop
    400807a4:	d503201f 	nop
    400807a8:	d503201f 	nop
    400807ac:	d503201f 	nop
    400807b0:	d503201f 	nop
    400807b4:	d503201f 	nop
    400807b8:	d503201f 	nop
    400807bc:	d503201f 	nop
    400807c0:	d503201f 	nop
    400807c4:	d503201f 	nop
    400807c8:	d503201f 	nop
    400807cc:	d503201f 	nop
    400807d0:	d503201f 	nop
    400807d4:	d503201f 	nop
    400807d8:	d503201f 	nop
    400807dc:	d503201f 	nop
    400807e0:	d503201f 	nop
    400807e4:	d503201f 	nop
    400807e8:	d503201f 	nop
    400807ec:	d503201f 	nop
    400807f0:	d503201f 	nop
    400807f4:	d503201f 	nop
    400807f8:	d503201f 	nop
    400807fc:	d503201f 	nop

0000000040080800 <curr_el_sp0_sync>:
    40080800:	14000000 	b	40080800 <curr_el_sp0_sync>
    40080804:	d503201f 	nop
    40080808:	d503201f 	nop
    4008080c:	d503201f 	nop
    40080810:	d503201f 	nop
    40080814:	d503201f 	nop
    40080818:	d503201f 	nop
    4008081c:	d503201f 	nop
    40080820:	d503201f 	nop
    40080824:	d503201f 	nop
    40080828:	d503201f 	nop
    4008082c:	d503201f 	nop
    40080830:	d503201f 	nop
    40080834:	d503201f 	nop
    40080838:	d503201f 	nop
    4008083c:	d503201f 	nop
    40080840:	d503201f 	nop
    40080844:	d503201f 	nop
    40080848:	d503201f 	nop
    4008084c:	d503201f 	nop
    40080850:	d503201f 	nop
    40080854:	d503201f 	nop
    40080858:	d503201f 	nop
    4008085c:	d503201f 	nop
    40080860:	d503201f 	nop
    40080864:	d503201f 	nop
    40080868:	d503201f 	nop
    4008086c:	d503201f 	nop
    40080870:	d503201f 	nop
    40080874:	d503201f 	nop
    40080878:	d503201f 	nop
    4008087c:	d503201f 	nop

0000000040080880 <curr_el_sp0_irq>:
    40080880:	14000000 	b	40080880 <curr_el_sp0_irq>
    40080884:	d503201f 	nop
    40080888:	d503201f 	nop
    4008088c:	d503201f 	nop
    40080890:	d503201f 	nop
    40080894:	d503201f 	nop
    40080898:	d503201f 	nop
    4008089c:	d503201f 	nop
    400808a0:	d503201f 	nop
    400808a4:	d503201f 	nop
    400808a8:	d503201f 	nop
    400808ac:	d503201f 	nop
    400808b0:	d503201f 	nop
    400808b4:	d503201f 	nop
    400808b8:	d503201f 	nop
    400808bc:	d503201f 	nop
    400808c0:	d503201f 	nop
    400808c4:	d503201f 	nop
    400808c8:	d503201f 	nop
    400808cc:	d503201f 	nop
    400808d0:	d503201f 	nop
    400808d4:	d503201f 	nop
    400808d8:	d503201f 	nop
    400808dc:	d503201f 	nop
    400808e0:	d503201f 	nop
    400808e4:	d503201f 	nop
    400808e8:	d503201f 	nop
    400808ec:	d503201f 	nop
    400808f0:	d503201f 	nop
    400808f4:	d503201f 	nop
    400808f8:	d503201f 	nop
    400808fc:	d503201f 	nop

0000000040080900 <curr_el_sp0_fiq>:
    40080900:	14000000 	b	40080900 <curr_el_sp0_fiq>
    40080904:	d503201f 	nop
    40080908:	d503201f 	nop
    4008090c:	d503201f 	nop
    40080910:	d503201f 	nop
    40080914:	d503201f 	nop
    40080918:	d503201f 	nop
    4008091c:	d503201f 	nop
    40080920:	d503201f 	nop
    40080924:	d503201f 	nop
    40080928:	d503201f 	nop
    4008092c:	d503201f 	nop
    40080930:	d503201f 	nop
    40080934:	d503201f 	nop
    40080938:	d503201f 	nop
    4008093c:	d503201f 	nop
    40080940:	d503201f 	nop
    40080944:	d503201f 	nop
    40080948:	d503201f 	nop
    4008094c:	d503201f 	nop
    40080950:	d503201f 	nop
    40080954:	d503201f 	nop
    40080958:	d503201f 	nop
    4008095c:	d503201f 	nop
    40080960:	d503201f 	nop
    40080964:	d503201f 	nop
    40080968:	d503201f 	nop
    4008096c:	d503201f 	nop
    40080970:	d503201f 	nop
    40080974:	d503201f 	nop
    40080978:	d503201f 	nop
    4008097c:	d503201f 	nop

0000000040080980 <curr_el_sp0_serror>:
    40080980:	14000000 	b	40080980 <curr_el_sp0_serror>
    40080984:	d503201f 	nop
    40080988:	d503201f 	nop
    4008098c:	d503201f 	nop
    40080990:	d503201f 	nop
    40080994:	d503201f 	nop
    40080998:	d503201f 	nop
    4008099c:	d503201f 	nop
    400809a0:	d503201f 	nop
    400809a4:	d503201f 	nop
    400809a8:	d503201f 	nop
    400809ac:	d503201f 	nop
    400809b0:	d503201f 	nop
    400809b4:	d503201f 	nop
    400809b8:	d503201f 	nop
    400809bc:	d503201f 	nop
    400809c0:	d503201f 	nop
    400809c4:	d503201f 	nop
    400809c8:	d503201f 	nop
    400809cc:	d503201f 	nop
    400809d0:	d503201f 	nop
    400809d4:	d503201f 	nop
    400809d8:	d503201f 	nop
    400809dc:	d503201f 	nop
    400809e0:	d503201f 	nop
    400809e4:	d503201f 	nop
    400809e8:	d503201f 	nop
    400809ec:	d503201f 	nop
    400809f0:	d503201f 	nop
    400809f4:	d503201f 	nop
    400809f8:	d503201f 	nop
    400809fc:	d503201f 	nop

0000000040080a00 <curr_el_spx_sync>:
    40080a00:	d5385219 	mrs	x25, esr_el1
    40080a04:	14000000 	b	40080a04 <curr_el_spx_sync+0x4>
    40080a08:	d503201f 	nop
    40080a0c:	d503201f 	nop
    40080a10:	d503201f 	nop
    40080a14:	d503201f 	nop
    40080a18:	d503201f 	nop
    40080a1c:	d503201f 	nop
    40080a20:	d503201f 	nop
    40080a24:	d503201f 	nop
    40080a28:	d503201f 	nop
    40080a2c:	d503201f 	nop
    40080a30:	d503201f 	nop
    40080a34:	d503201f 	nop
    40080a38:	d503201f 	nop
    40080a3c:	d503201f 	nop
    40080a40:	d503201f 	nop
    40080a44:	d503201f 	nop
    40080a48:	d503201f 	nop
    40080a4c:	d503201f 	nop
    40080a50:	d503201f 	nop
    40080a54:	d503201f 	nop
    40080a58:	d503201f 	nop
    40080a5c:	d503201f 	nop
    40080a60:	d503201f 	nop
    40080a64:	d503201f 	nop
    40080a68:	d503201f 	nop
    40080a6c:	d503201f 	nop
    40080a70:	d503201f 	nop
    40080a74:	d503201f 	nop
    40080a78:	d503201f 	nop
    40080a7c:	d503201f 	nop

0000000040080a80 <curr_el_spx_irq>:
    40080a80:	58002999 	ldr	x25, 40080fb0 <curr_el_spx_serror+0x430>
    40080a84:	14000000 	b	40080a84 <curr_el_spx_irq+0x4>
    40080a88:	d503201f 	nop
    40080a8c:	d503201f 	nop
    40080a90:	d503201f 	nop
    40080a94:	d503201f 	nop
    40080a98:	d503201f 	nop
    40080a9c:	d503201f 	nop
    40080aa0:	d503201f 	nop
    40080aa4:	d503201f 	nop
    40080aa8:	d503201f 	nop
    40080aac:	d503201f 	nop
    40080ab0:	d503201f 	nop
    40080ab4:	d503201f 	nop
    40080ab8:	d503201f 	nop
    40080abc:	d503201f 	nop
    40080ac0:	d503201f 	nop
    40080ac4:	d503201f 	nop
    40080ac8:	d503201f 	nop
    40080acc:	d503201f 	nop
    40080ad0:	d503201f 	nop
    40080ad4:	d503201f 	nop
    40080ad8:	d503201f 	nop
    40080adc:	d503201f 	nop
    40080ae0:	d503201f 	nop
    40080ae4:	d503201f 	nop
    40080ae8:	d503201f 	nop
    40080aec:	d503201f 	nop
    40080af0:	d503201f 	nop
    40080af4:	d503201f 	nop
    40080af8:	d503201f 	nop
    40080afc:	d503201f 	nop

0000000040080b00 <curr_el_spx_fiq>:
    40080b00:	14000000 	b	40080b00 <curr_el_spx_fiq>
    40080b04:	d503201f 	nop
    40080b08:	d503201f 	nop
    40080b0c:	d503201f 	nop
    40080b10:	d503201f 	nop
    40080b14:	d503201f 	nop
    40080b18:	d503201f 	nop
    40080b1c:	d503201f 	nop
    40080b20:	d503201f 	nop
    40080b24:	d503201f 	nop
    40080b28:	d503201f 	nop
    40080b2c:	d503201f 	nop
    40080b30:	d503201f 	nop
    40080b34:	d503201f 	nop
    40080b38:	d503201f 	nop
    40080b3c:	d503201f 	nop
    40080b40:	d503201f 	nop
    40080b44:	d503201f 	nop
    40080b48:	d503201f 	nop
    40080b4c:	d503201f 	nop
    40080b50:	d503201f 	nop
    40080b54:	d503201f 	nop
    40080b58:	d503201f 	nop
    40080b5c:	d503201f 	nop
    40080b60:	d503201f 	nop
    40080b64:	d503201f 	nop
    40080b68:	d503201f 	nop
    40080b6c:	d503201f 	nop
    40080b70:	d503201f 	nop
    40080b74:	d503201f 	nop
    40080b78:	d503201f 	nop
    40080b7c:	d503201f 	nop

0000000040080b80 <curr_el_spx_serror>:
    40080b80:	14000000 	b	40080b80 <curr_el_spx_serror>
    40080b84:	d503201f 	nop
    40080b88:	d503201f 	nop
    40080b8c:	d503201f 	nop
    40080b90:	d503201f 	nop
    40080b94:	d503201f 	nop
    40080b98:	d503201f 	nop
    40080b9c:	d503201f 	nop
    40080ba0:	d503201f 	nop
    40080ba4:	d503201f 	nop
    40080ba8:	d503201f 	nop
    40080bac:	d503201f 	nop
    40080bb0:	d503201f 	nop
    40080bb4:	d503201f 	nop
    40080bb8:	d503201f 	nop
    40080bbc:	d503201f 	nop
    40080bc0:	d503201f 	nop
    40080bc4:	d503201f 	nop
    40080bc8:	d503201f 	nop
    40080bcc:	d503201f 	nop
    40080bd0:	d503201f 	nop
    40080bd4:	d503201f 	nop
    40080bd8:	d503201f 	nop
    40080bdc:	d503201f 	nop
    40080be0:	d503201f 	nop
    40080be4:	d503201f 	nop
    40080be8:	d503201f 	nop
    40080bec:	d503201f 	nop
    40080bf0:	d503201f 	nop
    40080bf4:	d503201f 	nop
    40080bf8:	d503201f 	nop
    40080bfc:	d503201f 	nop
    40080c00:	14000000 	b	40080c00 <curr_el_spx_serror+0x80>
    40080c04:	d503201f 	nop
    40080c08:	d503201f 	nop
    40080c0c:	d503201f 	nop
    40080c10:	d503201f 	nop
    40080c14:	d503201f 	nop
    40080c18:	d503201f 	nop
    40080c1c:	d503201f 	nop
    40080c20:	d503201f 	nop
    40080c24:	d503201f 	nop
    40080c28:	d503201f 	nop
    40080c2c:	d503201f 	nop
    40080c30:	d503201f 	nop
    40080c34:	d503201f 	nop
    40080c38:	d503201f 	nop
    40080c3c:	d503201f 	nop
    40080c40:	d503201f 	nop
    40080c44:	d503201f 	nop
    40080c48:	d503201f 	nop
    40080c4c:	d503201f 	nop
    40080c50:	d503201f 	nop
    40080c54:	d503201f 	nop
    40080c58:	d503201f 	nop
    40080c5c:	d503201f 	nop
    40080c60:	d503201f 	nop
    40080c64:	d503201f 	nop
    40080c68:	d503201f 	nop
    40080c6c:	d503201f 	nop
    40080c70:	d503201f 	nop
    40080c74:	d503201f 	nop
    40080c78:	d503201f 	nop
    40080c7c:	d503201f 	nop
    40080c80:	14000000 	b	40080c80 <curr_el_spx_serror+0x100>
    40080c84:	d503201f 	nop
    40080c88:	d503201f 	nop
    40080c8c:	d503201f 	nop
    40080c90:	d503201f 	nop
    40080c94:	d503201f 	nop
    40080c98:	d503201f 	nop
    40080c9c:	d503201f 	nop
    40080ca0:	d503201f 	nop
    40080ca4:	d503201f 	nop
    40080ca8:	d503201f 	nop
    40080cac:	d503201f 	nop
    40080cb0:	d503201f 	nop
    40080cb4:	d503201f 	nop
    40080cb8:	d503201f 	nop
    40080cbc:	d503201f 	nop
    40080cc0:	d503201f 	nop
    40080cc4:	d503201f 	nop
    40080cc8:	d503201f 	nop
    40080ccc:	d503201f 	nop
    40080cd0:	d503201f 	nop
    40080cd4:	d503201f 	nop
    40080cd8:	d503201f 	nop
    40080cdc:	d503201f 	nop
    40080ce0:	d503201f 	nop
    40080ce4:	d503201f 	nop
    40080ce8:	d503201f 	nop
    40080cec:	d503201f 	nop
    40080cf0:	d503201f 	nop
    40080cf4:	d503201f 	nop
    40080cf8:	d503201f 	nop
    40080cfc:	d503201f 	nop
    40080d00:	14000000 	b	40080d00 <curr_el_spx_serror+0x180>
    40080d04:	d503201f 	nop
    40080d08:	d503201f 	nop
    40080d0c:	d503201f 	nop
    40080d10:	d503201f 	nop
    40080d14:	d503201f 	nop
    40080d18:	d503201f 	nop
    40080d1c:	d503201f 	nop
    40080d20:	d503201f 	nop
    40080d24:	d503201f 	nop
    40080d28:	d503201f 	nop
    40080d2c:	d503201f 	nop
    40080d30:	d503201f 	nop
    40080d34:	d503201f 	nop
    40080d38:	d503201f 	nop
    40080d3c:	d503201f 	nop
    40080d40:	d503201f 	nop
    40080d44:	d503201f 	nop
    40080d48:	d503201f 	nop
    40080d4c:	d503201f 	nop
    40080d50:	d503201f 	nop
    40080d54:	d503201f 	nop
    40080d58:	d503201f 	nop
    40080d5c:	d503201f 	nop
    40080d60:	d503201f 	nop
    40080d64:	d503201f 	nop
    40080d68:	d503201f 	nop
    40080d6c:	d503201f 	nop
    40080d70:	d503201f 	nop
    40080d74:	d503201f 	nop
    40080d78:	d503201f 	nop
    40080d7c:	d503201f 	nop
    40080d80:	14000000 	b	40080d80 <curr_el_spx_serror+0x200>
    40080d84:	d503201f 	nop
    40080d88:	d503201f 	nop
    40080d8c:	d503201f 	nop
    40080d90:	d503201f 	nop
    40080d94:	d503201f 	nop
    40080d98:	d503201f 	nop
    40080d9c:	d503201f 	nop
    40080da0:	d503201f 	nop
    40080da4:	d503201f 	nop
    40080da8:	d503201f 	nop
    40080dac:	d503201f 	nop
    40080db0:	d503201f 	nop
    40080db4:	d503201f 	nop
    40080db8:	d503201f 	nop
    40080dbc:	d503201f 	nop
    40080dc0:	d503201f 	nop
    40080dc4:	d503201f 	nop
    40080dc8:	d503201f 	nop
    40080dcc:	d503201f 	nop
    40080dd0:	d503201f 	nop
    40080dd4:	d503201f 	nop
    40080dd8:	d503201f 	nop
    40080ddc:	d503201f 	nop
    40080de0:	d503201f 	nop
    40080de4:	d503201f 	nop
    40080de8:	d503201f 	nop
    40080dec:	d503201f 	nop
    40080df0:	d503201f 	nop
    40080df4:	d503201f 	nop
    40080df8:	d503201f 	nop
    40080dfc:	d503201f 	nop
    40080e00:	14000000 	b	40080e00 <curr_el_spx_serror+0x280>
    40080e04:	d503201f 	nop
    40080e08:	d503201f 	nop
    40080e0c:	d503201f 	nop
    40080e10:	d503201f 	nop
    40080e14:	d503201f 	nop
    40080e18:	d503201f 	nop
    40080e1c:	d503201f 	nop
    40080e20:	d503201f 	nop
    40080e24:	d503201f 	nop
    40080e28:	d503201f 	nop
    40080e2c:	d503201f 	nop
    40080e30:	d503201f 	nop
    40080e34:	d503201f 	nop
    40080e38:	d503201f 	nop
    40080e3c:	d503201f 	nop
    40080e40:	d503201f 	nop
    40080e44:	d503201f 	nop
    40080e48:	d503201f 	nop
    40080e4c:	d503201f 	nop
    40080e50:	d503201f 	nop
    40080e54:	d503201f 	nop
    40080e58:	d503201f 	nop
    40080e5c:	d503201f 	nop
    40080e60:	d503201f 	nop
    40080e64:	d503201f 	nop
    40080e68:	d503201f 	nop
    40080e6c:	d503201f 	nop
    40080e70:	d503201f 	nop
    40080e74:	d503201f 	nop
    40080e78:	d503201f 	nop
    40080e7c:	d503201f 	nop
    40080e80:	14000000 	b	40080e80 <curr_el_spx_serror+0x300>
    40080e84:	d503201f 	nop
    40080e88:	d503201f 	nop
    40080e8c:	d503201f 	nop
    40080e90:	d503201f 	nop
    40080e94:	d503201f 	nop
    40080e98:	d503201f 	nop
    40080e9c:	d503201f 	nop
    40080ea0:	d503201f 	nop
    40080ea4:	d503201f 	nop
    40080ea8:	d503201f 	nop
    40080eac:	d503201f 	nop
    40080eb0:	d503201f 	nop
    40080eb4:	d503201f 	nop
    40080eb8:	d503201f 	nop
    40080ebc:	d503201f 	nop
    40080ec0:	d503201f 	nop
    40080ec4:	d503201f 	nop
    40080ec8:	d503201f 	nop
    40080ecc:	d503201f 	nop
    40080ed0:	d503201f 	nop
    40080ed4:	d503201f 	nop
    40080ed8:	d503201f 	nop
    40080edc:	d503201f 	nop
    40080ee0:	d503201f 	nop
    40080ee4:	d503201f 	nop
    40080ee8:	d503201f 	nop
    40080eec:	d503201f 	nop
    40080ef0:	d503201f 	nop
    40080ef4:	d503201f 	nop
    40080ef8:	d503201f 	nop
    40080efc:	d503201f 	nop
    40080f00:	14000000 	b	40080f00 <curr_el_spx_serror+0x380>
    40080f04:	d503201f 	nop
    40080f08:	d503201f 	nop
    40080f0c:	d503201f 	nop
    40080f10:	d503201f 	nop
    40080f14:	d503201f 	nop
    40080f18:	d503201f 	nop
    40080f1c:	d503201f 	nop
    40080f20:	d503201f 	nop
    40080f24:	d503201f 	nop
    40080f28:	d503201f 	nop
    40080f2c:	d503201f 	nop
    40080f30:	d503201f 	nop
    40080f34:	d503201f 	nop
    40080f38:	d503201f 	nop
    40080f3c:	d503201f 	nop
    40080f40:	d503201f 	nop
    40080f44:	d503201f 	nop
    40080f48:	d503201f 	nop
    40080f4c:	d503201f 	nop
    40080f50:	d503201f 	nop
    40080f54:	d503201f 	nop
    40080f58:	d503201f 	nop
    40080f5c:	d503201f 	nop
    40080f60:	d503201f 	nop
    40080f64:	d503201f 	nop
    40080f68:	d503201f 	nop
    40080f6c:	d503201f 	nop
    40080f70:	d503201f 	nop
    40080f74:	d503201f 	nop
    40080f78:	d503201f 	nop
    40080f7c:	d503201f 	nop
    40080f80:	14000000 	b	40080f80 <curr_el_spx_serror+0x400>
    40080f84:	00000000 	udf	#0
    40080f88:	40082700 	.word	0x40082700
    40080f8c:	00000000 	.word	0x00000000
    40080f90:	40080800 	.word	0x40080800
    40080f94:	00000000 	.word	0x00000000
    40080f98:	00000001 	.word	0x00000001
    40080f9c:	00000000 	.word	0x00000000
    40080fa0:	00000002 	.word	0x00000002
    40080fa4:	00000000 	.word	0x00000000
    40080fa8:	000003e8 	.word	0x000003e8
    40080fac:	00000000 	.word	0x00000000
    40080fb0:	00000033 	.word	0x00000033
    40080fb4:	00000000 	.word	0x00000000

Disassembly of section .text:

0000000040080fb8 <kmain>:
    40080fb8:	a9bd7bfd 	stp	x29, x30, [sp, #-48]!
    40080fbc:	910003fd 	mov	x29, sp
    40080fc0:	528000a0 	mov	w0, #0x5                   	// #5
    40080fc4:	52800001 	mov	w1, #0x0                   	// #0
    40080fc8:	1ac10c00 	sdiv	w0, w0, w1
    40080fcc:	b9002fe0 	str	w0, [sp, #44]
    40080fd0:	b0000000 	adrp	x0, 40081000 <kmain+0x48>
    40080fd4:	911bc000 	add	x0, x0, #0x6f0
    40080fd8:	f9400000 	ldr	x0, [x0]
    40080fdc:	f90013e0 	str	x0, [sp, #32]
    40080fe0:	b0000000 	adrp	x0, 40081000 <kmain+0x48>
    40080fe4:	911be000 	add	x0, x0, #0x6f8
    40080fe8:	f9400000 	ldr	x0, [x0]
    40080fec:	f9000fe0 	str	x0, [sp, #24]
    40080ff0:	f94013e0 	ldr	x0, [sp, #32]
    40080ff4:	940000c4 	bl	40081304 <gicd_init>
    40080ff8:	f9400fe0 	ldr	x0, [sp, #24]
    40080ffc:	94000143 	bl	40081508 <gicc_init>
    40081000:	f94013e0 	ldr	x0, [sp, #32]
    40081004:	52800101 	mov	w1, #0x8                   	// #8
    40081008:	b9028001 	str	w1, [x0, #640]
    4008100c:	f94013e0 	ldr	x0, [sp, #32]
    40081010:	12801fe1 	mov	w1, #0xffffff00            	// #-256
    40081014:	b9040801 	str	w1, [x0, #1032]
    40081018:	f94013e0 	ldr	x0, [sp, #32]
    4008101c:	3201f3e1 	mov	w1, #0xaaaaaaaa            	// #-1431655766
    40081020:	b90c0001 	str	w1, [x0, #3072]
    40081024:	52800101 	mov	w1, #0x8                   	// #8
    40081028:	f94013e0 	ldr	x0, [sp, #32]
    4008102c:	94000103 	bl	40081438 <gicd_enable_irq>
    40081030:	52800000 	mov	w0, #0x0                   	// #0
    40081034:	a8c37bfd 	ldp	x29, x30, [sp], #48
    40081038:	d65f03c0 	ret

000000004008103c <bmain>:
    4008103c:	a9be7bfd 	stp	x29, x30, [sp, #-32]!
    40081040:	910003fd 	mov	x29, sp
    40081044:	90000000 	adrp	x0, 40081000 <kmain+0x48>
    40081048:	911bc000 	add	x0, x0, #0x6f0
    4008104c:	f9400000 	ldr	x0, [x0]
    40081050:	f9000fe0 	str	x0, [sp, #24]
    40081054:	52800101 	mov	w1, #0x8                   	// #8
    40081058:	f9400fe0 	ldr	x0, [sp, #24]
    4008105c:	94000121 	bl	400814e0 <gicd_sgi>
    40081060:	d503201f 	nop
    40081064:	a8c27bfd 	ldp	x29, x30, [sp], #32
    40081068:	d65f03c0 	ret

000000004008106c <uart_flush>:
    4008106c:	d10043ff 	sub	sp, sp, #0x10
    40081070:	f90007e0 	str	x0, [sp, #8]
    40081074:	d503201f 	nop
    40081078:	f94007e0 	ldr	x0, [sp, #8]
    4008107c:	b9401800 	ldr	w0, [x0, #24]
    40081080:	12190000 	and	w0, w0, #0x80
    40081084:	7100001f 	cmp	w0, #0x0
    40081088:	54ffff80 	b.eq	40081078 <uart_flush+0xc>  // b.none
    4008108c:	d503201f 	nop
    40081090:	d503201f 	nop
    40081094:	910043ff 	add	sp, sp, #0x10
    40081098:	d65f03c0 	ret

000000004008109c <uart_init>:
    4008109c:	a9bd7bfd 	stp	x29, x30, [sp, #-48]!
    400810a0:	910003fd 	mov	x29, sp
    400810a4:	f9000fe0 	str	x0, [sp, #24]
    400810a8:	f9400fe0 	ldr	x0, [sp, #24]
    400810ac:	f90017e0 	str	x0, [sp, #40]
    400810b0:	f94017e0 	ldr	x0, [sp, #40]
    400810b4:	b900301f 	str	wzr, [x0, #48]
    400810b8:	f94017e0 	ldr	x0, [sp, #40]
    400810bc:	52800a01 	mov	w1, #0x50                  	// #80
    400810c0:	b9003801 	str	w1, [x0, #56]
    400810c4:	f94017e0 	ldr	x0, [sp, #40]
    400810c8:	52806021 	mov	w1, #0x301                 	// #769
    400810cc:	b9003001 	str	w1, [x0, #48]
    400810d0:	f94017e0 	ldr	x0, [sp, #40]
    400810d4:	97ffffe6 	bl	4008106c <uart_flush>
    400810d8:	f94017e0 	ldr	x0, [sp, #40]
    400810dc:	a8c37bfd 	ldp	x29, x30, [sp], #48
    400810e0:	d65f03c0 	ret

00000000400810e4 <uart_putchar>:
    400810e4:	d10043ff 	sub	sp, sp, #0x10
    400810e8:	f90007e0 	str	x0, [sp, #8]
    400810ec:	39001fe1 	strb	w1, [sp, #7]
    400810f0:	f94007e0 	ldr	x0, [sp, #8]
    400810f4:	39401fe1 	ldrb	w1, [sp, #7]
    400810f8:	39000001 	strb	w1, [x0]
    400810fc:	d503201f 	nop
    40081100:	f94007e0 	ldr	x0, [sp, #8]
    40081104:	b9401800 	ldr	w0, [x0, #24]
    40081108:	121b0000 	and	w0, w0, #0x20
    4008110c:	7100001f 	cmp	w0, #0x0
    40081110:	54ffff81 	b.ne	40081100 <uart_putchar+0x1c>  // b.any
    40081114:	d503201f 	nop
    40081118:	d503201f 	nop
    4008111c:	910043ff 	add	sp, sp, #0x10
    40081120:	d65f03c0 	ret

0000000040081124 <hextochar>:
    40081124:	d10083ff 	sub	sp, sp, #0x20
    40081128:	f90007e0 	str	x0, [sp, #8]
    4008112c:	39001fe1 	strb	w1, [sp, #7]
    40081130:	39401fe0 	ldrb	w0, [sp, #7]
    40081134:	53047c00 	lsr	w0, w0, #4
    40081138:	39007fe0 	strb	w0, [sp, #31]
    4008113c:	39407fe0 	ldrb	w0, [sp, #31]
    40081140:	7100241f 	cmp	w0, #0x9
    40081144:	540000e8 	b.hi	40081160 <hextochar+0x3c>  // b.pmore
    40081148:	39407fe0 	ldrb	w0, [sp, #31]
    4008114c:	1100c000 	add	w0, w0, #0x30
    40081150:	12001c01 	and	w1, w0, #0xff
    40081154:	f94007e0 	ldr	x0, [sp, #8]
    40081158:	39000001 	strb	w1, [x0]
    4008115c:	14000006 	b	40081174 <hextochar+0x50>
    40081160:	39407fe0 	ldrb	w0, [sp, #31]
    40081164:	1100dc00 	add	w0, w0, #0x37
    40081168:	12001c01 	and	w1, w0, #0xff
    4008116c:	f94007e0 	ldr	x0, [sp, #8]
    40081170:	39000001 	strb	w1, [x0]
    40081174:	39401fe0 	ldrb	w0, [sp, #7]
    40081178:	12000c00 	and	w0, w0, #0xf
    4008117c:	39007be0 	strb	w0, [sp, #30]
    40081180:	39407be0 	ldrb	w0, [sp, #30]
    40081184:	7100241f 	cmp	w0, #0x9
    40081188:	54000108 	b.hi	400811a8 <hextochar+0x84>  // b.pmore
    4008118c:	f94007e0 	ldr	x0, [sp, #8]
    40081190:	91000400 	add	x0, x0, #0x1
    40081194:	39407be1 	ldrb	w1, [sp, #30]
    40081198:	1100c021 	add	w1, w1, #0x30
    4008119c:	12001c21 	and	w1, w1, #0xff
    400811a0:	39000001 	strb	w1, [x0]
    400811a4:	14000007 	b	400811c0 <hextochar+0x9c>
    400811a8:	f94007e0 	ldr	x0, [sp, #8]
    400811ac:	91000400 	add	x0, x0, #0x1
    400811b0:	39407be1 	ldrb	w1, [sp, #30]
    400811b4:	1100dc21 	add	w1, w1, #0x37
    400811b8:	12001c21 	and	w1, w1, #0xff
    400811bc:	39000001 	strb	w1, [x0]
    400811c0:	f94007e0 	ldr	x0, [sp, #8]
    400811c4:	91000800 	add	x0, x0, #0x2
    400811c8:	3900001f 	strb	wzr, [x0]
    400811cc:	d503201f 	nop
    400811d0:	910083ff 	add	sp, sp, #0x20
    400811d4:	d65f03c0 	ret

00000000400811d8 <uart_gets>:
    400811d8:	a9bd7bfd 	stp	x29, x30, [sp, #-48]!
    400811dc:	910003fd 	mov	x29, sp
    400811e0:	f9000fe0 	str	x0, [sp, #24]
    400811e4:	f9000be1 	str	x1, [sp, #16]
    400811e8:	f9400fe0 	ldr	x0, [sp, #24]
    400811ec:	9400001b 	bl	40081258 <uart_getchar>
    400811f0:	3900bfe0 	strb	w0, [sp, #47]
    400811f4:	1400000d 	b	40081228 <uart_gets+0x50>
    400811f8:	52800821 	mov	w1, #0x41                  	// #65
    400811fc:	f9400fe0 	ldr	x0, [sp, #24]
    40081200:	97ffffb9 	bl	400810e4 <uart_putchar>
    40081204:	f9400be0 	ldr	x0, [sp, #16]
    40081208:	3940bfe1 	ldrb	w1, [sp, #47]
    4008120c:	39000001 	strb	w1, [x0]
    40081210:	f9400be0 	ldr	x0, [sp, #16]
    40081214:	91000400 	add	x0, x0, #0x1
    40081218:	f9000be0 	str	x0, [sp, #16]
    4008121c:	f9400fe0 	ldr	x0, [sp, #24]
    40081220:	9400000e 	bl	40081258 <uart_getchar>
    40081224:	3900bfe0 	strb	w0, [sp, #47]
    40081228:	3940bfe0 	ldrb	w0, [sp, #47]
    4008122c:	7100281f 	cmp	w0, #0xa
    40081230:	54fffe41 	b.ne	400811f8 <uart_gets+0x20>  // b.any
    40081234:	f9400be0 	ldr	x0, [sp, #16]
    40081238:	3900001f 	strb	wzr, [x0]
    4008123c:	90000000 	adrp	x0, 40081000 <kmain+0x48>
    40081240:	911b8001 	add	x1, x0, #0x6e0
    40081244:	f9400fe0 	ldr	x0, [sp, #24]
    40081248:	9400001a 	bl	400812b0 <uart_puts>
    4008124c:	d503201f 	nop
    40081250:	a8c37bfd 	ldp	x29, x30, [sp], #48
    40081254:	d65f03c0 	ret

0000000040081258 <uart_getchar>:
    40081258:	a9bd7bfd 	stp	x29, x30, [sp, #-48]!
    4008125c:	910003fd 	mov	x29, sp
    40081260:	f9000fe0 	str	x0, [sp, #24]
    40081264:	d503201f 	nop
    40081268:	f9400fe0 	ldr	x0, [sp, #24]
    4008126c:	b9401800 	ldr	w0, [x0, #24]
    40081270:	121c0000 	and	w0, w0, #0x10
    40081274:	7100001f 	cmp	w0, #0x0
    40081278:	54ffff81 	b.ne	40081268 <uart_getchar+0x10>  // b.any
    4008127c:	f9400fe0 	ldr	x0, [sp, #24]
    40081280:	39400000 	ldrb	w0, [x0]
    40081284:	3900bfe0 	strb	w0, [sp, #47]
    40081288:	9100a3e0 	add	x0, sp, #0x28
    4008128c:	3940bfe1 	ldrb	w1, [sp, #47]
    40081290:	97ffffa5 	bl	40081124 <hextochar>
    40081294:	9100a3e0 	add	x0, sp, #0x28
    40081298:	aa0003e1 	mov	x1, x0
    4008129c:	f9400fe0 	ldr	x0, [sp, #24]
    400812a0:	94000004 	bl	400812b0 <uart_puts>
    400812a4:	3940bfe0 	ldrb	w0, [sp, #47]
    400812a8:	a8c37bfd 	ldp	x29, x30, [sp], #48
    400812ac:	d65f03c0 	ret

00000000400812b0 <uart_puts>:
    400812b0:	a9be7bfd 	stp	x29, x30, [sp, #-32]!
    400812b4:	910003fd 	mov	x29, sp
    400812b8:	f9000fe0 	str	x0, [sp, #24]
    400812bc:	f9000be1 	str	x1, [sp, #16]
    400812c0:	14000009 	b	400812e4 <uart_puts+0x34>
    400812c4:	f9400be0 	ldr	x0, [sp, #16]
    400812c8:	39400000 	ldrb	w0, [x0]
    400812cc:	2a0003e1 	mov	w1, w0
    400812d0:	f9400fe0 	ldr	x0, [sp, #24]
    400812d4:	97ffff84 	bl	400810e4 <uart_putchar>
    400812d8:	f9400be0 	ldr	x0, [sp, #16]
    400812dc:	91000400 	add	x0, x0, #0x1
    400812e0:	f9000be0 	str	x0, [sp, #16]
    400812e4:	f9400be0 	ldr	x0, [sp, #16]
    400812e8:	39400000 	ldrb	w0, [x0]
    400812ec:	7100001f 	cmp	w0, #0x0
    400812f0:	54fffea1 	b.ne	400812c4 <uart_puts+0x14>  // b.any
    400812f4:	d503201f 	nop
    400812f8:	d503201f 	nop
    400812fc:	a8c27bfd 	ldp	x29, x30, [sp], #32
    40081300:	d65f03c0 	ret

0000000040081304 <gicd_init>:
    40081304:	d100c3ff 	sub	sp, sp, #0x30
    40081308:	f90007e0 	str	x0, [sp, #8]
    4008130c:	f94007e0 	ldr	x0, [sp, #8]
    40081310:	b900001f 	str	wzr, [x0]
    40081314:	b9002fff 	str	wzr, [sp, #44]
    40081318:	14000009 	b	4008133c <gicd_init+0x38>
    4008131c:	f94007e0 	ldr	x0, [sp, #8]
    40081320:	b9802fe1 	ldrsw	x1, [sp, #44]
    40081324:	91018021 	add	x1, x1, #0x60
    40081328:	12800002 	mov	w2, #0xffffffff            	// #-1
    4008132c:	b8217802 	str	w2, [x0, x1, lsl #2]
    40081330:	b9402fe0 	ldr	w0, [sp, #44]
    40081334:	11000400 	add	w0, w0, #0x1
    40081338:	b9002fe0 	str	w0, [sp, #44]
    4008133c:	b9402fe0 	ldr	w0, [sp, #44]
    40081340:	71007c1f 	cmp	w0, #0x1f
    40081344:	54fffecd 	b.le	4008131c <gicd_init+0x18>
    40081348:	b9002bff 	str	wzr, [sp, #40]
    4008134c:	14000009 	b	40081370 <gicd_init+0x6c>
    40081350:	f94007e0 	ldr	x0, [sp, #8]
    40081354:	b9802be1 	ldrsw	x1, [sp, #40]
    40081358:	91028021 	add	x1, x1, #0xa0
    4008135c:	12800002 	mov	w2, #0xffffffff            	// #-1
    40081360:	b8217802 	str	w2, [x0, x1, lsl #2]
    40081364:	b9402be0 	ldr	w0, [sp, #40]
    40081368:	11000400 	add	w0, w0, #0x1
    4008136c:	b9002be0 	str	w0, [sp, #40]
    40081370:	b9402be0 	ldr	w0, [sp, #40]
    40081374:	71007c1f 	cmp	w0, #0x1f
    40081378:	54fffecd 	b.le	40081350 <gicd_init+0x4c>
    4008137c:	b90027ff 	str	wzr, [sp, #36]
    40081380:	14000009 	b	400813a4 <gicd_init+0xa0>
    40081384:	f94007e0 	ldr	x0, [sp, #8]
    40081388:	b98027e1 	ldrsw	x1, [sp, #36]
    4008138c:	91040021 	add	x1, x1, #0x100
    40081390:	12800002 	mov	w2, #0xffffffff            	// #-1
    40081394:	b8217802 	str	w2, [x0, x1, lsl #2]
    40081398:	b94027e0 	ldr	w0, [sp, #36]
    4008139c:	11000400 	add	w0, w0, #0x1
    400813a0:	b90027e0 	str	w0, [sp, #36]
    400813a4:	b94027e0 	ldr	w0, [sp, #36]
    400813a8:	7107fc1f 	cmp	w0, #0x1ff
    400813ac:	54fffecd 	b.le	40081384 <gicd_init+0x80>
    400813b0:	b90023ff 	str	wzr, [sp, #32]
    400813b4:	14000009 	b	400813d8 <gicd_init+0xd4>
    400813b8:	f94007e0 	ldr	x0, [sp, #8]
    400813bc:	b98023e1 	ldrsw	x1, [sp, #32]
    400813c0:	91080021 	add	x1, x1, #0x200
    400813c4:	3200c3e2 	mov	w2, #0x1010101             	// #16843009
    400813c8:	b8217802 	str	w2, [x0, x1, lsl #2]
    400813cc:	b94023e0 	ldr	w0, [sp, #32]
    400813d0:	11000400 	add	w0, w0, #0x1
    400813d4:	b90023e0 	str	w0, [sp, #32]
    400813d8:	b94023e0 	ldr	w0, [sp, #32]
    400813dc:	7103f81f 	cmp	w0, #0xfe
    400813e0:	54fffecd 	b.le	400813b8 <gicd_init+0xb4>
    400813e4:	b9001fff 	str	wzr, [sp, #28]
    400813e8:	14000008 	b	40081408 <gicd_init+0x104>
    400813ec:	f94007e0 	ldr	x0, [sp, #8]
    400813f0:	b9801fe1 	ldrsw	x1, [sp, #28]
    400813f4:	910c0021 	add	x1, x1, #0x300
    400813f8:	b821781f 	str	wzr, [x0, x1, lsl #2]
    400813fc:	b9401fe0 	ldr	w0, [sp, #28]
    40081400:	11000400 	add	w0, w0, #0x1
    40081404:	b9001fe0 	str	w0, [sp, #28]
    40081408:	b9401fe0 	ldr	w0, [sp, #28]
    4008140c:	7101fc1f 	cmp	w0, #0x7f
    40081410:	54fffeed 	b.le	400813ec <gicd_init+0xe8>
    40081414:	f94007e0 	ldr	x0, [sp, #8]
    40081418:	52800021 	mov	w1, #0x1                   	// #1
    4008141c:	b90f1c01 	str	w1, [x0, #3868]
    40081420:	f94007e0 	ldr	x0, [sp, #8]
    40081424:	52800021 	mov	w1, #0x1                   	// #1
    40081428:	b9000001 	str	w1, [x0]
    4008142c:	d503201f 	nop
    40081430:	9100c3ff 	add	sp, sp, #0x30
    40081434:	d65f03c0 	ret

0000000040081438 <gicd_enable_irq>:
    40081438:	d10083ff 	sub	sp, sp, #0x20
    4008143c:	f90007e0 	str	x0, [sp, #8]
    40081440:	79000fe1 	strh	w1, [sp, #6]
    40081444:	79400fe0 	ldrh	w0, [sp, #6]
    40081448:	53057c00 	lsr	w0, w0, #5
    4008144c:	12003c00 	and	w0, w0, #0xffff
    40081450:	b9001fe0 	str	w0, [sp, #28]
    40081454:	79400fe0 	ldrh	w0, [sp, #6]
    40081458:	12001000 	and	w0, w0, #0x1f
    4008145c:	b9001be0 	str	w0, [sp, #24]
    40081460:	b9401be0 	ldr	w0, [sp, #24]
    40081464:	52800021 	mov	w1, #0x1                   	// #1
    40081468:	1ac02020 	lsl	w0, w1, w0
    4008146c:	2a0003e2 	mov	w2, w0
    40081470:	f94007e0 	ldr	x0, [sp, #8]
    40081474:	b9801fe1 	ldrsw	x1, [sp, #28]
    40081478:	91010021 	add	x1, x1, #0x40
    4008147c:	b8217802 	str	w2, [x0, x1, lsl #2]
    40081480:	d503201f 	nop
    40081484:	910083ff 	add	sp, sp, #0x20
    40081488:	d65f03c0 	ret

000000004008148c <gicd_disable_irq>:
    4008148c:	d10083ff 	sub	sp, sp, #0x20
    40081490:	f90007e0 	str	x0, [sp, #8]
    40081494:	79000fe1 	strh	w1, [sp, #6]
    40081498:	79400fe0 	ldrh	w0, [sp, #6]
    4008149c:	53057c00 	lsr	w0, w0, #5
    400814a0:	12003c00 	and	w0, w0, #0xffff
    400814a4:	b9001fe0 	str	w0, [sp, #28]
    400814a8:	79400fe0 	ldrh	w0, [sp, #6]
    400814ac:	12001000 	and	w0, w0, #0x1f
    400814b0:	b9001be0 	str	w0, [sp, #24]
    400814b4:	b9401be0 	ldr	w0, [sp, #24]
    400814b8:	52800021 	mov	w1, #0x1                   	// #1
    400814bc:	1ac02020 	lsl	w0, w1, w0
    400814c0:	2a0003e2 	mov	w2, w0
    400814c4:	f94007e0 	ldr	x0, [sp, #8]
    400814c8:	b9801fe1 	ldrsw	x1, [sp, #28]
    400814cc:	91018021 	add	x1, x1, #0x60
    400814d0:	b8217802 	str	w2, [x0, x1, lsl #2]
    400814d4:	d503201f 	nop
    400814d8:	910083ff 	add	sp, sp, #0x20
    400814dc:	d65f03c0 	ret

00000000400814e0 <gicd_sgi>:
    400814e0:	d10043ff 	sub	sp, sp, #0x10
    400814e4:	f90007e0 	str	x0, [sp, #8]
    400814e8:	79000fe1 	strh	w1, [sp, #6]
    400814ec:	f94007e0 	ldr	x0, [sp, #8]
    400814f0:	52800101 	mov	w1, #0x8                   	// #8
    400814f4:	72a00021 	movk	w1, #0x1, lsl #16
    400814f8:	b90f0001 	str	w1, [x0, #3840]
    400814fc:	d503201f 	nop
    40081500:	910043ff 	add	sp, sp, #0x10
    40081504:	d65f03c0 	ret

0000000040081508 <gicc_init>:
    40081508:	d10043ff 	sub	sp, sp, #0x10
    4008150c:	f90007e0 	str	x0, [sp, #8]
    40081510:	f94007e0 	ldr	x0, [sp, #8]
    40081514:	b900001f 	str	wzr, [x0]
    40081518:	f94007e0 	ldr	x0, [sp, #8]
    4008151c:	52801fe1 	mov	w1, #0xff                  	// #255
    40081520:	b9000401 	str	w1, [x0, #4]
    40081524:	f94007e0 	ldr	x0, [sp, #8]
    40081528:	b900081f 	str	wzr, [x0, #8]
    4008152c:	f94007e0 	ldr	x0, [sp, #8]
    40081530:	52800021 	mov	w1, #0x1                   	// #1
    40081534:	b9000001 	str	w1, [x0]
    40081538:	d503201f 	nop
    4008153c:	910043ff 	add	sp, sp, #0x10
    40081540:	d65f03c0 	ret
